target datalayout = "e-m:e-p270:32:32-p271:32:32-p272:64:64-i64:64-i128:128-f80:128-n8:16:32:64-S128"
target triple = "x86_64-pc-linux-gnu"

%struct.code = type { i8, i8, i16 }
%struct.z_stream_s = type { ptr, i32, i64, ptr, i32, i64, ptr, ptr, ptr, ptr, ptr, i32, i64, i64 }
%struct.inflate_state = type { ptr, i32, i32, i32, i32, i32, i32, i64, i64, ptr, i32, i32, i32, i32, ptr, i64, i32, i32, i32, i32, ptr, ptr, i32, i32, i32, i32, i32, i32, ptr, [320 x i16], [288 x i16], [1444 x %struct.code], i32, i32, i32 }

; Function Attrs: nounwind uwtable
define internal i32 @inflateStateCheck(ptr noundef %0) #0 {
  %2 = alloca i32, align 4
  %3 = alloca ptr, align 8
  %4 = alloca ptr, align 8
  store ptr %0, ptr %3, align 8
  %5 = load ptr, ptr %3, align 8
  %6 = icmp eq ptr %5, null
  br i1 %6, label %17, label %7

7:                                                ; preds = %1
  %8 = load ptr, ptr %3, align 8
  %9 = getelementptr inbounds %struct.z_stream_s, ptr %8, i32 0, i32 8
  %10 = load ptr, ptr %9, align 8
  %11 = icmp eq ptr %10, null
  br i1 %11, label %17, label %12

12:                                               ; preds = %7
  %13 = load ptr, ptr %3, align 8
  %14 = getelementptr inbounds %struct.z_stream_s, ptr %13, i32 0, i32 9
  %15 = load ptr, ptr %14, align 8
  %16 = icmp eq ptr %15, null
  br i1 %16, label %17, label %18

17:                                               ; preds = %12, %7, %1
  store i32 1, ptr %2, align 4
  br label %42

18:                                               ; preds = %12
  %19 = load ptr, ptr %3, align 8
  %20 = getelementptr inbounds %struct.z_stream_s, ptr %19, i32 0, i32 7
  %21 = load ptr, ptr %20, align 8
  store ptr %21, ptr %4, align 8
  %22 = load ptr, ptr %4, align 8
  %23 = icmp eq ptr %22, null
  br i1 %23, label %40, label %24

24:                                               ; preds = %18
  %25 = load ptr, ptr %4, align 8
  %26 = getelementptr inbounds %struct.inflate_state, ptr %25, i32 0, i32 0
  %27 = load ptr, ptr %26, align 8
  %28 = load ptr, ptr %3, align 8
  %29 = icmp ne ptr %27, %28
  br i1 %29, label %40, label %30

30:                                               ; preds = %24
  %31 = load ptr, ptr %4, align 8
  %32 = getelementptr inbounds %struct.inflate_state, ptr %31, i32 0, i32 1
  %33 = load i32, ptr %32, align 8
  %34 = icmp ult i32 %33, 16180
  br i1 %34, label %40, label %35

35:                                               ; preds = %30
  %36 = load ptr, ptr %4, align 8
  %37 = getelementptr inbounds %struct.inflate_state, ptr %36, i32 0, i32 1
  %38 = load i32, ptr %37, align 8
  %39 = icmp ugt i32 %38, 16211
  br i1 %39, label %40, label %41

40:                                               ; preds = %35, %30, %24, %18
  store i32 1, ptr %2, align 4
  br label %42

41:                                               ; preds = %35
  store i32 0, ptr %2, align 4
  br label %42

42:                                               ; preds = %41, %40, %17
  %43 = load i32, ptr %2, align 4
  ret i32 %43
}

; Function Attrs: nounwind uwtable
define dso_local i32 @cm_zlib_inflateEnd(ptr noundef %0) #0 {
  %2 = alloca i32, align 4
  %3 = alloca ptr, align 8
  %4 = alloca ptr, align 8
  store ptr %0, ptr %3, align 8
  %5 = load ptr, ptr %3, align 8
  %6 = call i32 @inflateStateCheck(ptr noundef %5)
  %7 = icmp ne i32 %6, 0
  br i1 %7, label %8, label %9

8:                                                ; preds = %1
  store i32 -2, ptr %2, align 4
  br label %39

9:                                                ; preds = %1
  %10 = load ptr, ptr %3, align 8
  %11 = getelementptr inbounds %struct.z_stream_s, ptr %10, i32 0, i32 7
  %12 = load ptr, ptr %11, align 8
  store ptr %12, ptr %4, align 8
  %13 = load ptr, ptr %4, align 8
  %14 = getelementptr inbounds %struct.inflate_state, ptr %13, i32 0, i32 14
  %15 = load ptr, ptr %14, align 8
  %16 = icmp ne ptr %15, null
  br i1 %16, label %17, label %27

17:                                               ; preds = %9
  %18 = load ptr, ptr %3, align 8
  %19 = getelementptr inbounds %struct.z_stream_s, ptr %18, i32 0, i32 9
  %20 = load ptr, ptr %19, align 8
  %21 = load ptr, ptr %3, align 8
  %22 = getelementptr inbounds %struct.z_stream_s, ptr %21, i32 0, i32 10
  %23 = load ptr, ptr %22, align 8
  %24 = load ptr, ptr %4, align 8
  %25 = getelementptr inbounds %struct.inflate_state, ptr %24, i32 0, i32 14
  %26 = load ptr, ptr %25, align 8
  call void %20(ptr noundef %23, ptr noundef %26)
  br label %27

27:                                               ; preds = %17, %9
  %28 = load ptr, ptr %3, align 8
  %29 = getelementptr inbounds %struct.z_stream_s, ptr %28, i32 0, i32 9
  %30 = load ptr, ptr %29, align 8
  %31 = load ptr, ptr %3, align 8
  %32 = getelementptr inbounds %struct.z_stream_s, ptr %31, i32 0, i32 10
  %33 = load ptr, ptr %32, align 8
  %34 = load ptr, ptr %3, align 8
  %35 = getelementptr inbounds %struct.z_stream_s, ptr %34, i32 0, i32 7
  %36 = load ptr, ptr %35, align 8
  call void %30(ptr noundef %33, ptr noundef %36)
  %37 = load ptr, ptr %3, align 8
  %38 = getelementptr inbounds %struct.z_stream_s, ptr %37, i32 0, i32 7
  store ptr null, ptr %38, align 8
  store i32 0, ptr %2, align 4
  br label %39

39:                                               ; preds = %27, %8
  %40 = load i32, ptr %2, align 4
  ret i32 %40
}