; Function Attrs: nounwind uwtable
define dso_local range(i32 -2, 1) i32 @cm_zlib_inflateEnd(ptr noundef %0) local_unnamed_addr #1 {
  %2 = icmp eq ptr %0, null
  br i1 %2, label %inflateStateCheck.exit.thread, label %3

3:                                                ; preds = %1
  %4 = getelementptr inbounds nuw i8, ptr %0, i64 64
  %5 = load ptr, ptr %4, align 8
  %6 = icmp eq ptr %5, null
  br i1 %6, label %inflateStateCheck.exit.thread, label %7

7:                                                ; preds = %3
  %8 = getelementptr inbounds nuw i8, ptr %0, i64 72
  %9 = load ptr, ptr %8, align 8
  %10 = icmp eq ptr %9, null
  br i1 %10, label %inflateStateCheck.exit.thread, label %11

11:                                               ; preds = %7
  %12 = getelementptr inbounds nuw i8, ptr %0, i64 56
  %13 = load ptr, ptr %12, align 8
  %14 = icmp eq ptr %13, null
  br i1 %14, label %inflateStateCheck.exit.thread, label %15

15:                                               ; preds = %11
  %16 = load ptr, ptr %13, align 8
  %.not.i = icmp eq ptr %16, %0
  br i1 %.not.i, label %inflateStateCheck.exit, label %inflateStateCheck.exit.thread

inflateStateCheck.exit:                           ; preds = %15
  %17 = getelementptr inbounds nuw i8, ptr %13, i64 8
  %18 = load i32, ptr %17, align 8
  %19 = add i32 %18, -16180
  %or.cond.i = icmp ult i32 %19, 32
  br i1 %or.cond.i, label %20, label %inflateStateCheck.exit.thread

20:                                               ; preds = %inflateStateCheck.exit
  %21 = getelementptr inbounds nuw i8, ptr %13, i64 72
  %22 = load ptr, ptr %21, align 8
  %.not11 = icmp eq ptr %22, null
  br i1 %.not11, label %26, label %23

23:                                               ; preds = %20
  %24 = getelementptr inbounds nuw i8, ptr %0, i64 80
  %25 = load ptr, ptr %24, align 8
  tail call void %9(ptr noundef %25, ptr noundef nonnull %22) #9
  %.pre = load ptr, ptr %8, align 8
  %.pre14 = load ptr, ptr %12, align 8
  br label %26

26:                                               ; preds = %23, %20
  %27 = phi ptr [ %.pre14, %23 ], [ %13, %20 ]
  %28 = phi ptr [ %.pre, %23 ], [ %9, %20 ]
  %29 = getelementptr inbounds nuw i8, ptr %0, i64 80
  %30 = load ptr, ptr %29, align 8
  tail call void %28(ptr noundef %30, ptr noundef %27) #9
  store ptr null, ptr %12, align 8
  br label %inflateStateCheck.exit.thread

inflateStateCheck.exit.thread:                    ; preds = %11, %15, %1, %3, %7, %inflateStateCheck.exit, %26
  %.0 = phi i32 [ 0, %26 ], [ -2, %inflateStateCheck.exit ], [ -2, %7 ], [ -2, %3 ], [ -2, %1 ], [ -2, %15 ], [ -2, %11 ]
  ret i32 %.0
}